target datalayout = "e-m:e-p270:32:32-p271:32:32-p272:64:64-i64:64-i128:128-f80:128-n8:16:32:64-S128"
target triple = "x86_64-pc-linux-gnu"

; Function Attrs: inlinehint nounwind uwtable
define internal void @put_tpel_pixels_mc21_c(ptr noundef %0, ptr noundef %1, i32 noundef %2, i32 noundef %3, i32 noundef %4) #1 {
  %6 = alloca ptr, align 8
  %7 = alloca ptr, align 8
  %8 = alloca i32, align 4
  %9 = alloca i32, align 4
  %10 = alloca i32, align 4
  %11 = alloca i32, align 4
  %12 = alloca i32, align 4
  store ptr %0, ptr %6, align 8, !tbaa !10
  store ptr %1, ptr %7, align 8, !tbaa !10
  store i32 %2, ptr %8, align 4, !tbaa !12
  store i32 %3, ptr %9, align 4, !tbaa !12
  store i32 %4, ptr %10, align 4, !tbaa !12
  call void @llvm.lifetime.start.p0(i64 4, ptr %11) #4
  call void @llvm.lifetime.start.p0(i64 4, ptr %12) #4
  store i32 0, ptr %11, align 4, !tbaa !12
  br label %13

13:                                               ; preds = %80, %5
  %14 = load i32, ptr %11, align 4, !tbaa !12
  %15 = load i32, ptr %10, align 4, !tbaa !12
  %16 = icmp slt i32 %14, %15
  br i1 %16, label %17, label %83

17:                                               ; preds = %13
  store i32 0, ptr %12, align 4, !tbaa !12
  br label %18

18:                                               ; preds = %68, %17
  %19 = load i32, ptr %12, align 4, !tbaa !12
  %20 = load i32, ptr %9, align 4, !tbaa !12
  %21 = icmp slt i32 %19, %20
  br i1 %21, label %22, label %71

22:                                               ; preds = %18
  %23 = load ptr, ptr %7, align 8, !tbaa !10
  %24 = load i32, ptr %12, align 4, !tbaa !12
  %25 = sext i32 %24 to i64
  %26 = getelementptr inbounds i8, ptr %23, i64 %25
  %27 = load i8, ptr %26, align 1, !tbaa !14
  %28 = zext i8 %27 to i32
  %29 = mul nsw i32 3, %28
  %30 = load ptr, ptr %7, align 8, !tbaa !10
  %31 = load i32, ptr %12, align 4, !tbaa !12
  %32 = add nsw i32 %31, 1
  %33 = sext i32 %32 to i64
  %34 = getelementptr inbounds i8, ptr %30, i64 %33
  %35 = load i8, ptr %34, align 1, !tbaa !14
  %36 = zext i8 %35 to i32
  %37 = mul nsw i32 4, %36
  %38 = add nsw i32 %29, %37
  %39 = load ptr, ptr %7, align 8, !tbaa !10
  %40 = load i32, ptr %12, align 4, !tbaa !12
  %41 = load i32, ptr %8, align 4, !tbaa !12
  %42 = add nsw i32 %40, %41
  %43 = sext i32 %42 to i64
  %44 = getelementptr inbounds i8, ptr %39, i64 %43
  %45 = load i8, ptr %44, align 1, !tbaa !14
  %46 = zext i8 %45 to i32
  %47 = mul nsw i32 2, %46
  %48 = add nsw i32 %38, %47
  %49 = load ptr, ptr %7, align 8, !tbaa !10
  %50 = load i32, ptr %12, align 4, !tbaa !12
  %51 = load i32, ptr %8, align 4, !tbaa !12
  %52 = add nsw i32 %50, %51
  %53 = add nsw i32 %52, 1
  %54 = sext i32 %53 to i64
  %55 = getelementptr inbounds i8, ptr %49, i64 %54
  %56 = load i8, ptr %55, align 1, !tbaa !14
  %57 = zext i8 %56 to i32
  %58 = mul nsw i32 3, %57
  %59 = add nsw i32 %48, %58
  %60 = add nsw i32 %59, 6
  %61 = mul nsw i32 %60, 2731
  %62 = ashr i32 %61, 15
  %63 = trunc i32 %62 to i8
  %64 = load ptr, ptr %6, align 8, !tbaa !10
  %65 = load i32, ptr %12, align 4, !tbaa !12
  %66 = sext i32 %65 to i64
  %67 = getelementptr inbounds i8, ptr %64, i64 %66
  store i8 %63, ptr %67, align 1, !tbaa !14
  br label %68

68:                                               ; preds = %22
  %69 = load i32, ptr %12, align 4, !tbaa !12
  %70 = add nsw i32 %69, 1
  store i32 %70, ptr %12, align 4, !tbaa !12
  br label %18, !llvm.loop !24

71:                                               ; preds = %18
  %72 = load i32, ptr %8, align 4, !tbaa !12
  %73 = load ptr, ptr %7, align 8, !tbaa !10
  %74 = sext i32 %72 to i64
  %75 = getelementptr inbounds i8, ptr %73, i64 %74
  store ptr %75, ptr %7, align 8, !tbaa !10
  %76 = load i32, ptr %8, align 4, !tbaa !12
  %77 = load ptr, ptr %6, align 8, !tbaa !10
  %78 = sext i32 %76 to i64
  %79 = getelementptr inbounds i8, ptr %77, i64 %78
  store ptr %79, ptr %6, align 8, !tbaa !10
  br label %80

80:                                               ; preds = %71
  %81 = load i32, ptr %11, align 4, !tbaa !12
  %82 = add nsw i32 %81, 1
  store i32 %82, ptr %11, align 4, !tbaa !12
  br label %13, !llvm.loop !25

83:                                               ; preds = %13
  call void @llvm.lifetime.end.p0(i64 4, ptr %12) #4
  call void @llvm.lifetime.end.p0(i64 4, ptr %11) #4
  ret void
}